; Function Attrs: nounwind uwtable
define void @Gia_ManDupDfsRehash_rec(ptr noundef %0, ptr noundef %1, ptr noundef %2) local_unnamed_addr #1 {
  %4 = getelementptr inbounds nuw i8, ptr %2, i64 8
  %5 = load i32, ptr %4, align 4
  %.not = icmp eq i32 %5, -1
  br i1 %.not, label %6, label %common.ret11

common.ret11:                                     ; preds = %3, %6
  ret void

6:                                                ; preds = %3
  %7 = load i64, ptr %2, align 4
  %8 = and i64 %7, 536870911
  %9 = sub nsw i64 0, %8
  %10 = getelementptr inbounds %struct.Gia_Obj_t_, ptr %2, i64 %9
  tail call void @Gia_ManDupDfsRehash_rec(ptr noundef %0, ptr noundef %1, ptr noundef nonnull %10)
  %11 = load i64, ptr %2, align 4
  %12 = lshr i64 %11, 32
  %13 = and i64 %12, 536870911
  %14 = sub nsw i64 0, %13
  %15 = getelementptr inbounds %struct.Gia_Obj_t_, ptr %2, i64 %14
  tail call void @Gia_ManDupDfsRehash_rec(ptr noundef %0, ptr noundef %1, ptr noundef nonnull %15)
  %16 = load i64, ptr %2, align 4
  %17 = and i64 %16, 536870911
  %18 = sub nsw i64 0, %17
  %19 = getelementptr inbounds %struct.Gia_Obj_t_, ptr %2, i64 %18, i32 1
  %20 = load i32, ptr %19, align 4
  %21 = trunc i64 %16 to i32
  %22 = lshr i32 %21, 29
  %23 = and i32 %22, 1
  %24 = xor i32 %23, %20
  %25 = lshr i64 %16, 32
  %26 = and i64 %25, 536870911
  %27 = sub nsw i64 0, %26
  %28 = getelementptr inbounds %struct.Gia_Obj_t_, ptr %2, i64 %27, i32 1
  %29 = load i32, ptr %28, align 4
  %30 = lshr i64 %16, 61
  %31 = trunc nuw nsw i64 %30 to i32
  %32 = and i32 %31, 1
  %33 = xor i32 %32, %29
  %34 = tail call i32 @Gia_ManHashAnd(ptr noundef %0, i32 noundef %24, i32 noundef %33) #29
  store i32 %34, ptr %4, align 4
  br label %common.ret11
}